; Function Attrs: mustprogress uwtable
define void @text_window_add_button(ptr noundef readonly %0, ptr noundef %1, ptr noundef %2) local_unnamed_addr #2 personality ptr @__gxx_personality_v0 {
  %4 = alloca %class.QString, align 16
  %5 = alloca %class.QString, align 16
  %.not = icmp eq ptr %0, null
  br i1 %.not, label %_ZN7QStringD2Ev.exit, label %6

6:                                                ; preds = %3
  %7 = load ptr, ptr %0, align 8
  call void @llvm.lifetime.start.p0(i64 24, ptr nonnull %4)
  %.not.i.i = icmp eq ptr %2, null
  br i1 %.not.i.i, label %_ZN7QStringC2EPKc.exit, label %.split.i.i

.split.i.i:                                       ; preds = %6
  %8 = tail call noundef i64 @strlen(ptr noundef nonnull dereferenceable(1) %2) #22
  br label %_ZN7QStringC2EPKc.exit

_ZN7QStringC2EPKc.exit:                           ; preds = %6, %.split.i.i
  %.sink5.i.i = phi i64 [ %8, %.split.i.i ], [ 0, %6 ]
  call void @_ZN7QString8fromUtf8E14QByteArrayView(ptr dead_on_unwind nonnull writable sret(%class.QString) align 8 %4, i64 %.sink5.i.i, ptr %2)
  %9 = load <2 x ptr>, ptr %4, align 16
  store <2 x ptr> %9, ptr %5, align 16
  %10 = getelementptr inbounds i8, ptr %5, i64 16
  %11 = getelementptr inbounds i8, ptr %4, i64 16
  %12 = load i64, ptr %11, align 16
  store i64 %12, ptr %10, align 16
  call void @llvm.lifetime.end.p0(i64 24, ptr nonnull %4)
  invoke void @_ZN16FunnelTextDialog9addButtonEP12_funnel_bt_t7QString(ptr noundef nonnull align 8 dereferenceable(96) %7, ptr noundef %1, ptr noundef nonnull %5)
          to label %13 unwind label %18

13:                                               ; preds = %_ZN7QStringC2EPKc.exit
  %14 = load ptr, ptr %5, align 16
  %.not.i.i.i = icmp eq ptr %14, null
  br i1 %.not.i.i.i, label %_ZN7QStringD2Ev.exit, label %_ZN17QArrayDataPointerIDsE5derefEv.exit.i.i

_ZN17QArrayDataPointerIDsE5derefEv.exit.i.i:      ; preds = %13
  %15 = atomicrmw sub ptr %14, i32 1 seq_cst, align 4
  %.not.i.i5 = icmp eq i32 %15, 1
  br i1 %.not.i.i5, label %16, label %_ZN7QStringD2Ev.exit

16:                                               ; preds = %_ZN17QArrayDataPointerIDsE5derefEv.exit.i.i
  %17 = load ptr, ptr %5, align 16
  call void @_ZN10QArrayData10deallocateEPS_xx(ptr noundef %17, i64 noundef 2, i64 noundef 8) #22
  br label %_ZN7QStringD2Ev.exit

18:                                               ; preds = %_ZN7QStringC2EPKc.exit
  %19 = landingpad { ptr, i32 }
          cleanup
  %20 = load ptr, ptr %5, align 16
  %.not.i.i.i6 = icmp eq ptr %20, null
  br i1 %.not.i.i.i6, label %_ZN7QStringD2Ev.exit9, label %_ZN17QArrayDataPointerIDsE5derefEv.exit.i.i7

_ZN17QArrayDataPointerIDsE5derefEv.exit.i.i7:     ; preds = %18
  %21 = atomicrmw sub ptr %20, i32 1 seq_cst, align 4
  %.not.i.i8 = icmp eq i32 %21, 1
  br i1 %.not.i.i8, label %22, label %_ZN7QStringD2Ev.exit9

22:                                               ; preds = %_ZN17QArrayDataPointerIDsE5derefEv.exit.i.i7
  %23 = load ptr, ptr %5, align 16
  call void @_ZN10QArrayData10deallocateEPS_xx(ptr noundef %23, i64 noundef 2, i64 noundef 8) #22
  br label %_ZN7QStringD2Ev.exit9

_ZN7QStringD2Ev.exit9:                            ; preds = %18, %_ZN17QArrayDataPointerIDsE5derefEv.exit.i.i7, %22
  resume { ptr, i32 } %19

_ZN7QStringD2Ev.exit:                             ; preds = %16, %_ZN17QArrayDataPointerIDsE5derefEv.exit.i.i, %13, %3
  ret void
}